; Function Attrs: nofree norecurse nosync nounwind memory(read, argmem: readwrite, inaccessiblemem: none) uwtable
define internal void @sq_denorm_dblp(ptr noundef readonly captures(none) %0, ptr noundef writeonly captures(none) %1, ptr noundef readonly captures(none) %2, i32 noundef %3) #5 {
  %5 = getelementptr inbounds nuw i8, ptr %0, i64 72
  %6 = load ptr, ptr %5, align 8, !tbaa !21
  %7 = getelementptr inbounds nuw i8, ptr %6, i64 8
  %8 = load double, ptr %7, align 8, !tbaa !43
  %9 = getelementptr inbounds nuw i8, ptr %6, i64 32
  %10 = load i64, ptr %9, align 8, !tbaa !48
  %11 = icmp sgt i32 %3, 0
  br i1 %11, label %.lr.ph.preheader, label %._crit_edge

.lr.ph.preheader:                                 ; preds = %4
  %wide.trip.count = zext nneg i32 %3 to i64
  br label %.lr.ph

._crit_edge:                                      ; preds = %.lr.ph, %4
  ret void

.lr.ph:                                           ; preds = %.lr.ph.preheader, %.lr.ph
  %indvars.iv = phi i64 [ 0, %.lr.ph.preheader ], [ %indvars.iv.next, %.lr.ph ]
  %12 = getelementptr inbounds nuw double, ptr %2, i64 %indvars.iv
  %13 = load double, ptr %12, align 8, !tbaa !64
  %14 = add nsw i64 %10, %indvars.iv
  %15 = and i64 %14, 256
  %.not = icmp eq i64 %15, 0
  %16 = select nsz i1 %.not, double 1.000000e+00, double -1.000000e+00
  %17 = tail call nsz double @llvm.fmuladd.f64(double %8, double %16, double %13)
  %18 = getelementptr inbounds nuw double, ptr %1, i64 %indvars.iv
  store double %17, ptr %18, align 8, !tbaa !64
  %indvars.iv.next = add nuw nsw i64 %indvars.iv, 1
  %exitcond.not = icmp eq i64 %indvars.iv.next, %wide.trip.count
  br i1 %exitcond.not, label %._crit_edge, label %.lr.ph, !llvm.loop !67
}